; Function Attrs: nofree norecurse nosync nounwind memory(argmem: readwrite) uwtable
define void @zconjugate_vector(i32 noundef %0, i32 noundef %1, ptr noundef captures(none) %2) local_unnamed_addr #4 {
  %4 = icmp sgt i32 %0, 0
  br i1 %4, label %.lr.ph, label %._crit_edge

.lr.ph:                                           ; preds = %3
  %5 = shl nsw i32 %1, 1
  %6 = sext i32 %5 to i64
  br label %7

7:                                                ; preds = %.lr.ph, %7
  %.08 = phi i32 [ 0, %.lr.ph ], [ %12, %7 ]
  %.067 = phi ptr [ %2, %.lr.ph ], [ %11, %7 ]
  %8 = getelementptr inbounds nuw i8, ptr %.067, i64 8
  %9 = load double, ptr %8, align 8, !tbaa !9
  %10 = fneg double %9
  store double %10, ptr %8, align 8, !tbaa !9
  %11 = getelementptr inbounds double, ptr %.067, i64 %6
  %12 = add nuw nsw i32 %.08, 1
  %exitcond.not = icmp eq i32 %12, %0
  br i1 %exitcond.not, label %._crit_edge, label %7, !llvm.loop !19

._crit_edge:                                      ; preds = %7, %3
  ret void
}